; Function Attrs: mustprogress uwtable
define dso_local void @_ZN3tev13homeDirectoryEv(ptr dead_on_unwind noalias writable sret(%"class.std::__1::__fs::filesystem::path") align 8 %0) local_unnamed_addr #3 personality ptr @__gxx_personality_v0 {
  %2 = tail call i32 @getuid() #27
  %3 = tail call ptr @getpwuid(i32 noundef %2)
  %4 = getelementptr inbounds i8, ptr %3, i64 32
  tail call void @llvm.memset.p0.i64(ptr noundef nonnull align 8 dereferenceable(24) %0, i8 0, i64 24, i1 false)
  %5 = load ptr, ptr %4, align 8
  br label %6

6:                                                ; preds = %6, %1
  %.0.i.i.i = phi ptr [ %5, %1 ], [ %8, %6 ]
  %7 = load i8, ptr %.0.i.i.i, align 1
  %.not.i.i.i = icmp eq i8 %7, 0
  %8 = getelementptr inbounds i8, ptr %.0.i.i.i, i64 1
  br i1 %.not.i.i.i, label %_ZNSt3__14__fs10filesystem24__is_pathable_char_arrayIPcS3_cLb1EE11__range_endB8ne190000EPKc.exit.i.i, label %6, !llvm.loop !44

_ZNSt3__14__fs10filesystem24__is_pathable_char_arrayIPcS3_cLb1EE11__range_endB8ne190000EPKc.exit.i.i: ; preds = %6
  %9 = invoke noundef nonnull align 8 dereferenceable(24) ptr @_ZNSt3__112basic_stringIcNS_11char_traitsIcEENS_9allocatorIcEEE6appendB8ne190000IPKcTnNS_9enable_ifIXsr31__has_forward_iterator_categoryIT_EE5valueEiE4typeELi0EEERS5_SA_SA_(ptr noundef nonnull align 8 dereferenceable(24) %0, ptr noundef %5, ptr noundef nonnull %.0.i.i.i)
          to label %_ZNSt3__14__fs10filesystem4pathC2B8ne190000IPcvEERKT_NS2_6formatE.exit unwind label %10

10:                                               ; preds = %_ZNSt3__14__fs10filesystem24__is_pathable_char_arrayIPcS3_cLb1EE11__range_endB8ne190000EPKc.exit.i.i
  %11 = landingpad { ptr, i32 }
          cleanup
  tail call void @_ZNSt3__112basic_stringIcNS_11char_traitsIcEENS_9allocatorIcEEED1Ev(ptr noundef nonnull align 8 dereferenceable(24) %0) #27
  resume { ptr, i32 } %11

_ZNSt3__14__fs10filesystem4pathC2B8ne190000IPcvEERKT_NS2_6formatE.exit: ; preds = %_ZNSt3__14__fs10filesystem24__is_pathable_char_arrayIPcS3_cLb1EE11__range_endB8ne190000EPKc.exit.i.i
  ret void
}